target datalayout = "e-m:e-p270:32:32-p271:32:32-p272:64:64-i64:64-i128:128-f80:128-n8:16:32:64-S128"
target triple = "x86_64-pc-linux-gnu"

%"union.std::_Optional_payload_base<evmc_revision>::_Storage" = type { i32 }
%"struct.evmone::Result" = type { i32, i64 }
%"struct.evmone::advanced::AdvancedExecutionState" = type <{ %"class.evmone::ExecutionState", i64, %"class.evmone::StackTop", i32, [4 x i8] }>
%"class.evmone::ExecutionState" = type { i64, %"class.evmone::Memory", ptr, %"class.evmc::HostContext", i32, %"class.std::__cxx11::basic_string", %"class.std::basic_string_view", i32, i64, i64, %"class.std::optional", %struct.evmc_tx_context, %"class.std::optional.5", %union.anon.22, %"class.std::vector", %"class.evmone::StackSpace" }
%"class.evmone::Memory" = type { %"class.std::unique_ptr", i64, i64 }
%"class.std::unique_ptr" = type { %"struct.std::__uniq_ptr_data" }
%"struct.std::__uniq_ptr_data" = type { %"class.std::__uniq_ptr_impl" }
%"class.std::__uniq_ptr_impl" = type { %"class.std::tuple" }
%"class.std::tuple" = type { %"struct.std::_Tuple_impl" }
%"struct.std::_Tuple_impl" = type { %"struct.std::_Head_base.2" }
%"struct.std::_Head_base.2" = type { ptr }
%"class.evmc::HostContext" = type { %"class.evmc::HostInterface", ptr, ptr }
%"class.evmc::HostInterface" = type { ptr }
%"class.std::__cxx11::basic_string" = type { %"struct.std::__cxx11::basic_string<unsigned char, evmc::byte_traits<unsigned char>>::_Alloc_hider", i64, %union.anon }
%"struct.std::__cxx11::basic_string<unsigned char, evmc::byte_traits<unsigned char>>::_Alloc_hider" = type { ptr }
%union.anon = type { i64, [8 x i8] }
%"class.std::basic_string_view" = type { i64, ptr }
%"class.std::optional" = type { %"struct.std::_Optional_base" }
%"struct.std::_Optional_base" = type { %"struct.std::_Optional_payload" }
%"struct.std::_Optional_payload" = type { %"struct.std::_Optional_payload.base", [7 x i8] }
%"struct.std::_Optional_payload.base" = type { %"struct.std::_Optional_payload_base.base" }
%"struct.std::_Optional_payload_base.base" = type <{ %"union.std::_Optional_payload_base<std::__cxx11::basic_string<unsigned char, evmc::byte_traits<unsigned char>>>::_Storage", i8 }>
%"union.std::_Optional_payload_base<std::__cxx11::basic_string<unsigned char, evmc::byte_traits<unsigned char>>>::_Storage" = type { %"class.std::__cxx11::basic_string" }
%struct.evmc_tx_context = type { %struct.evmc_bytes32, %struct.evmc_address, %struct.evmc_address, i64, i64, i64, %struct.evmc_bytes32, %struct.evmc_bytes32, %struct.evmc_bytes32, %struct.evmc_bytes32, ptr, i64, ptr, i64 }
%struct.evmc_address = type { [20 x i8] }
%struct.evmc_bytes32 = type { [32 x i8] }
%"class.std::optional.5" = type { %"struct.std::_Optional_base.6" }
%"struct.std::_Optional_base.6" = type { %"struct.std::_Optional_payload.8" }
%"struct.std::_Optional_payload.8" = type { %"struct.std::_Optional_payload.base.19", [7 x i8] }
%"struct.std::_Optional_payload.base.19" = type { %"struct.std::_Optional_payload_base.base.18" }
%"struct.std::_Optional_payload_base.base.18" = type <{ %"union.std::_Optional_payload_base<std::unordered_map<evmc::bytes32, evmone::TransactionInitcode>>::_Storage", i8 }>
%"union.std::_Optional_payload_base<std::unordered_map<evmc::bytes32, evmone::TransactionInitcode>>::_Storage" = type { %"class.std::unordered_map" }
%"class.std::unordered_map" = type { %"class.std::_Hashtable" }
%"class.std::_Hashtable" = type { ptr, i64, %"struct.std::__detail::_Hash_node_base", i64, %"struct.std::__detail::_Prime_rehash_policy", ptr }
%"struct.std::__detail::_Hash_node_base" = type { ptr }
%"struct.std::__detail::_Prime_rehash_policy" = type { float, i64 }
%union.anon.22 = type { ptr }
%"class.std::vector" = type { %"struct.std::_Vector_base" }
%"struct.std::_Vector_base" = type { %"struct.std::_Vector_base<const unsigned char *, std::allocator<const unsigned char *>>::_Vector_impl" }
%"struct.std::_Vector_base<const unsigned char *, std::allocator<const unsigned char *>>::_Vector_impl" = type { %"struct.std::_Vector_base<const unsigned char *, std::allocator<const unsigned char *>>::_Vector_impl_data" }
%"struct.std::_Vector_base<const unsigned char *, std::allocator<const unsigned char *>>::_Vector_impl_data" = type { ptr, ptr, ptr }
%"class.evmone::StackSpace" = type { %"class.std::unique_ptr.26" }
%"class.std::unique_ptr.26" = type { %"struct.std::__uniq_ptr_data.27" }
%"struct.std::__uniq_ptr_data.27" = type { %"class.std::__uniq_ptr_impl.28" }
%"class.std::__uniq_ptr_impl.28" = type { %"class.std::tuple.29" }
%"class.std::tuple.29" = type { %"struct.std::_Tuple_impl.30" }
%"struct.std::_Tuple_impl.30" = type { %"struct.std::_Head_base.33" }
%"struct.std::_Head_base.33" = type { ptr }
%"class.evmone::StackTop" = type { ptr }
%"struct.evmone::advanced::Instruction" = type { ptr, %"union.evmone::advanced::InstructionArgument" }
%"union.evmone::advanced::InstructionArgument" = type { i64 }
%"struct.intx::uint" = type { [4 x i64] }
%"struct.std::array.34" = type { [256 x %"struct.evmone::instr::Traits"] }
%"struct.evmone::instr::Traits" = type <{ ptr, i8, i8, i8, i8, %"class.std::optional.35", %"class.std::optional.35", [4 x i8] }>
%"class.std::optional.35" = type { %"struct.std::_Optional_base.36" }
%"struct.std::_Optional_base.36" = type { %"struct.std::_Optional_payload.38" }
%"struct.std::_Optional_payload.38" = type { %"struct.std::_Optional_payload_base.base.40", [3 x i8] }
%"struct.std::_Optional_payload_base.base.40" = type <{ %"union.std::_Optional_payload_base<evmc_revision>::_Storage", i8 }>

; Function Attrs: alwaysinline mustprogress nounwind uwtable
define linkonce_odr hidden noundef ptr @_ZSt14assume_alignedILm32EN4intx4uintILj256EEEEPT0_S4_(ptr noundef %0) #5 comdat {
  %2 = alloca ptr, align 8
  store ptr %0, ptr %2, align 8, !tbaa !89
  %3 = load ptr, ptr %2, align 8, !tbaa !89
  call void @llvm.assume(i1 true) [ "align"(ptr %3, i64 32) ]
  ret ptr %3
}

; Function Attrs: mustprogress nounwind uwtable
define linkonce_odr hidden void @_ZN6evmone8StackTopC2EPN4intx4uintILj256EEE(ptr noundef nonnull align 8 dereferenceable(8) %0, ptr noundef %1) unnamed_addr #0 comdat align 2 {
  %3 = alloca ptr, align 8
  %4 = alloca ptr, align 8
  store ptr %0, ptr %3, align 8, !tbaa !92
  store ptr %1, ptr %4, align 8, !tbaa !89
  %5 = load ptr, ptr %3, align 8
  %6 = getelementptr inbounds nuw %"class.evmone::StackTop", ptr %5, i32 0, i32 0
  %7 = load ptr, ptr %4, align 8, !tbaa !89
  %8 = call noundef ptr @_ZSt14assume_alignedILm32EN4intx4uintILj256EEEEPT0_S4_(ptr noundef %7) #16
  store ptr %8, ptr %6, align 8, !tbaa !94
  ret void
}

; Function Attrs: mustprogress nounwind uwtable
define linkonce_odr hidden noundef ptr @_ZN6evmone8StackTop3endEv(ptr noundef nonnull align 8 dereferenceable(8) %0) #0 comdat align 2 {
  %2 = alloca ptr, align 8
  store ptr %0, ptr %2, align 8, !tbaa !92
  %3 = load ptr, ptr %2, align 8
  %4 = getelementptr inbounds nuw %"class.evmone::StackTop", ptr %3, i32 0, i32 0
  %5 = load ptr, ptr %4, align 8, !tbaa !94
  ret ptr %5
}

; Function Attrs: mustprogress nounwind uwtable
define linkonce_odr hidden noundef nonnull align 8 dereferenceable(28) ptr @_ZNSt14__array_traitsIN6evmone5instr6TraitsELm256EE6_S_refERA256_KS2_m(ptr noundef nonnull align 8 dereferenceable(8192) %0, i64 noundef %1) #0 comdat align 2 {
  %3 = alloca ptr, align 8
  %4 = alloca i64, align 8
  store ptr %0, ptr %3, align 8, !tbaa !95
  store i64 %1, ptr %4, align 8, !tbaa !74
  %5 = load ptr, ptr %3, align 8, !tbaa !95, !nonnull !12, !align !13
  %6 = load i64, ptr %4, align 8, !tbaa !74
  %7 = getelementptr inbounds nuw [256 x %"struct.evmone::instr::Traits"], ptr %5, i64 0, i64 %6
  ret ptr %7
}

; Function Attrs: mustprogress nounwind uwtable
define linkonce_odr hidden void @_ZN6evmone8advanced22AdvancedExecutionState17adjust_stack_sizeEi(ptr noundef nonnull align 8 dereferenceable(564) %0, i32 noundef %1) #0 comdat align 2 {
  %3 = alloca ptr, align 8
  %4 = alloca i32, align 4
  %5 = alloca %"class.evmone::StackTop", align 8
  store ptr %0, ptr %3, align 8, !tbaa !10
  store i32 %1, ptr %4, align 4, !tbaa !76
  %6 = load ptr, ptr %3, align 8
  call void @llvm.lifetime.start.p0(ptr %5) #16
  %7 = getelementptr inbounds nuw %"struct.evmone::advanced::AdvancedExecutionState", ptr %6, i32 0, i32 2
  %8 = call noundef ptr @_ZN6evmone8StackTop3endEv(ptr noundef nonnull align 8 dereferenceable(8) %7) #16
  %9 = load i32, ptr %4, align 4, !tbaa !76
  %10 = sext i32 %9 to i64
  %11 = getelementptr inbounds %"struct.intx::uint", ptr %8, i64 %10
  call void @_ZN6evmone8StackTopC2EPN4intx4uintILj256EEE(ptr noundef nonnull align 8 dereferenceable(8) %5, ptr noundef %11) #16
  %12 = getelementptr inbounds nuw %"struct.evmone::advanced::AdvancedExecutionState", ptr %6, i32 0, i32 2
  call void @llvm.memcpy.p0.p0.i64(ptr align 8 %12, ptr align 8 %5, i64 8, i1 false), !tbaa.struct !88
  call void @llvm.lifetime.end.p0(ptr %5) #16
  ret void
}

; Function Attrs: mustprogress nounwind uwtable
define linkonce_odr hidden noundef nonnull align 8 dereferenceable(28) ptr @_ZNKSt5arrayIN6evmone5instr6TraitsELm256EEixEm(ptr noundef nonnull align 8 dereferenceable(8192) %0, i64 noundef %1) #0 comdat align 2 {
  %3 = alloca ptr, align 8
  %4 = alloca i64, align 8
  store ptr %0, ptr %3, align 8, !tbaa !90
  store i64 %1, ptr %4, align 8, !tbaa !74
  %5 = load ptr, ptr %3, align 8
  %6 = getelementptr inbounds nuw %"struct.std::array.34", ptr %5, i32 0, i32 0
  %7 = load i64, ptr %4, align 8, !tbaa !74
  %8 = call noundef nonnull align 8 dereferenceable(28) ptr @_ZNSt14__array_traitsIN6evmone5instr6TraitsELm256EE6_S_refERA256_KS2_m(ptr noundef nonnull align 8 dereferenceable(8192) %6, i64 noundef %7) #16
  ret ptr %8
}

; Function Attrs: mustprogress nounwind uwtable
define linkonce_odr hidden noundef ptr @_ZN6evmone8advanced22AdvancedExecutionState4exitE16evmc_status_code(ptr noundef nonnull align 8 dereferenceable(564) %0, i32 noundef %1) #0 comdat align 2 {
  %3 = alloca ptr, align 8
  %4 = alloca i32, align 4
  store ptr %0, ptr %3, align 8, !tbaa !10
  store i32 %1, ptr %4, align 4, !tbaa !71
  %5 = load ptr, ptr %3, align 8
  %6 = load i32, ptr %4, align 4, !tbaa !71
  %7 = getelementptr inbounds nuw %"class.evmone::ExecutionState", ptr %5, i32 0, i32 7
  store i32 %6, ptr %7, align 8, !tbaa !87
  ret ptr null
}

; Function Attrs: inlinehint mustprogress nounwind uwtable
define linkonce_odr hidden noundef i32 @_ZN6evmone8advanced5instr4implILNS_6OpcodeE85EXadL_ZNS_5instr4core6sstoreENS_8StackTopElRNS_14ExecutionStateEEEEE16evmc_status_codeRNS0_22AdvancedExecutionStateE(ptr noundef nonnull align 8 dereferenceable(564) %0) #2 comdat {
  %2 = alloca ptr, align 8
  %3 = alloca %"struct.evmone::Result", align 8
  %4 = alloca %"class.evmone::StackTop", align 8
  store ptr %0, ptr %2, align 8, !tbaa !10
  call void @llvm.lifetime.start.p0(ptr %3) #16
  %5 = load ptr, ptr %2, align 8, !tbaa !10, !nonnull !12, !align !13
  %6 = getelementptr inbounds nuw %"struct.evmone::advanced::AdvancedExecutionState", ptr %5, i32 0, i32 2
  call void @llvm.memcpy.p0.p0.i64(ptr align 8 %4, ptr align 8 %6, i64 8, i1 false), !tbaa.struct !88
  %7 = load ptr, ptr %2, align 8, !tbaa !10, !nonnull !12, !align !13
  %8 = getelementptr inbounds nuw %"struct.evmone::advanced::AdvancedExecutionState", ptr %7, i32 0, i32 1
  %9 = load i64, ptr %8, align 8, !tbaa !18
  %10 = load ptr, ptr %2, align 8, !tbaa !10, !nonnull !12, !align !13
  %11 = getelementptr inbounds nuw %"class.evmone::StackTop", ptr %4, i32 0, i32 0
  %12 = load ptr, ptr %11, align 8
  %13 = call { i32, i64 } @_ZN6evmone5instr4core6sstoreENS_8StackTopElRNS_14ExecutionStateE(ptr %12, i64 noundef %9, ptr noundef nonnull align 8 dereferenceable(544) %10) #16
  %14 = getelementptr inbounds nuw { i32, i64 }, ptr %3, i32 0, i32 0
  %15 = extractvalue { i32, i64 } %13, 0
  store i32 %15, ptr %14, align 8
  %16 = getelementptr inbounds nuw { i32, i64 }, ptr %3, i32 0, i32 1
  %17 = extractvalue { i32, i64 } %13, 1
  store i64 %17, ptr %16, align 8
  %18 = getelementptr inbounds nuw %"struct.evmone::Result", ptr %3, i32 0, i32 1
  %19 = load i64, ptr %18, align 8, !tbaa !14
  %20 = load ptr, ptr %2, align 8, !tbaa !10, !nonnull !12, !align !13
  %21 = getelementptr inbounds nuw %"struct.evmone::advanced::AdvancedExecutionState", ptr %20, i32 0, i32 1
  store i64 %19, ptr %21, align 8, !tbaa !18
  %22 = load ptr, ptr %2, align 8, !tbaa !10, !nonnull !12, !align !13
  %23 = call noundef nonnull align 8 dereferenceable(28) ptr @_ZNKSt5arrayIN6evmone5instr6TraitsELm256EEixEm(ptr noundef nonnull align 8 dereferenceable(8192) @_ZN6evmone5instr6traitsE, i64 noundef 85) #16
  call void @_ZN6evmone8advanced22AdvancedExecutionState17adjust_stack_sizeEi(ptr noundef nonnull align 8 dereferenceable(564) %22, i32 noundef -2) #16
  %24 = getelementptr inbounds nuw %"struct.evmone::Result", ptr %3, i32 0, i32 0
  %25 = load i32, ptr %24, align 8, !tbaa !70
  call void @llvm.lifetime.end.p0(ptr %3) #16
  ret i32 %25
}

; Function Attrs: mustprogress nounwind uwtable
define internal noundef ptr @_ZN6evmone8advanced12_GLOBAL__N_19op_sstoreEPKNS0_11InstructionERNS0_22AdvancedExecutionStateE(ptr noundef %0, ptr noundef nonnull align 8 dereferenceable(564) %1) #0 {
  %3 = alloca ptr, align 8
  %4 = alloca ptr, align 8
  %5 = alloca ptr, align 8
  %6 = alloca i64, align 8
  %7 = alloca i32, align 4
  %8 = alloca i32, align 4
  store ptr %0, ptr %4, align 8, !tbaa !7
  store ptr %1, ptr %5, align 8, !tbaa !10
  call void @llvm.lifetime.start.p0(ptr %6) #16
  %9 = load ptr, ptr %5, align 8, !tbaa !10, !nonnull !12, !align !13
  %10 = getelementptr inbounds nuw %"struct.evmone::advanced::AdvancedExecutionState", ptr %9, i32 0, i32 3
  %11 = load i32, ptr %10, align 8, !tbaa !72
  %12 = zext i32 %11 to i64
  %13 = load ptr, ptr %4, align 8, !tbaa !7
  %14 = getelementptr inbounds nuw %"struct.evmone::advanced::Instruction", ptr %13, i32 0, i32 1
  %15 = load i64, ptr %14, align 8, !tbaa !73
  %16 = sub nsw i64 %12, %15
  store i64 %16, ptr %6, align 8, !tbaa !74
  %17 = load i64, ptr %6, align 8, !tbaa !74
  %18 = load ptr, ptr %5, align 8, !tbaa !10, !nonnull !12, !align !13
  %19 = getelementptr inbounds nuw %"struct.evmone::advanced::AdvancedExecutionState", ptr %18, i32 0, i32 1
  %20 = load i64, ptr %19, align 8, !tbaa !18
  %21 = add nsw i64 %20, %17
  store i64 %21, ptr %19, align 8, !tbaa !18
  call void @llvm.lifetime.start.p0(ptr %7) #16
  %22 = load ptr, ptr %5, align 8, !tbaa !10, !nonnull !12, !align !13
  %23 = call noundef i32 @_ZN6evmone8advanced5instr4implILNS_6OpcodeE85EXadL_ZNS_5instr4core6sstoreENS_8StackTopElRNS_14ExecutionStateEEEEE16evmc_status_codeRNS0_22AdvancedExecutionStateE(ptr noundef nonnull align 8 dereferenceable(564) %22) #16
  store i32 %23, ptr %7, align 4, !tbaa !71
  %24 = load i32, ptr %7, align 4, !tbaa !71
  %25 = icmp ne i32 %24, 0
  br i1 %25, label %26, label %30

26:                                               ; preds = %2
  %27 = load ptr, ptr %5, align 8, !tbaa !10, !nonnull !12, !align !13
  %28 = load i32, ptr %7, align 4, !tbaa !71
  %29 = call noundef ptr @_ZN6evmone8advanced22AdvancedExecutionState4exitE16evmc_status_code(ptr noundef nonnull align 8 dereferenceable(564) %27, i32 noundef %28) #16
  store ptr %29, ptr %3, align 8
  store i32 1, ptr %8, align 4
  br label %43

30:                                               ; preds = %2
  %31 = load i64, ptr %6, align 8, !tbaa !74
  %32 = load ptr, ptr %5, align 8, !tbaa !10, !nonnull !12, !align !13
  %33 = getelementptr inbounds nuw %"struct.evmone::advanced::AdvancedExecutionState", ptr %32, i32 0, i32 1
  %34 = load i64, ptr %33, align 8, !tbaa !18
  %35 = sub nsw i64 %34, %31
  store i64 %35, ptr %33, align 8, !tbaa !18
  %36 = icmp slt i64 %35, 0
  br i1 %36, label %37, label %40

37:                                               ; preds = %30
  %38 = load ptr, ptr %5, align 8, !tbaa !10, !nonnull !12, !align !13
  %39 = call noundef ptr @_ZN6evmone8advanced22AdvancedExecutionState4exitE16evmc_status_code(ptr noundef nonnull align 8 dereferenceable(564) %38, i32 noundef 3) #16
  store ptr %39, ptr %3, align 8
  store i32 1, ptr %8, align 4
  br label %43

40:                                               ; preds = %30
  %41 = load ptr, ptr %4, align 8, !tbaa !7
  %42 = getelementptr inbounds nuw %"struct.evmone::advanced::Instruction", ptr %41, i32 1
  store ptr %42, ptr %4, align 8, !tbaa !7
  store ptr %42, ptr %3, align 8
  store i32 1, ptr %8, align 4
  br label %43

43:                                               ; preds = %40, %37, %26
  call void @llvm.lifetime.end.p0(ptr %7) #16
  call void @llvm.lifetime.end.p0(ptr %6) #16
  %44 = load ptr, ptr %3, align 8
  ret ptr %44
}